target datalayout = "e-m:e-p270:32:32-p271:32:32-p272:64:64-i64:64-i128:128-f80:128-n8:16:32:64-S128"
target triple = "x86_64-pc-linux-gnu"

@.str.357 = private unnamed_addr constant [5 x i8] c"(Ni)\00", align 1
@.str.358 = private unnamed_addr constant [3 x i8] c"On\00", align 1
@.str.359 = private unnamed_addr constant [11 x i8] c"0 <= start\00", align 1
@.str.360 = private unnamed_addr constant [46 x i8] c"../cpython/Modules/_testlimitedcapi/unicode.c\00", align 1
@__PRETTY_FUNCTION__.unicode_fill = private unnamed_addr constant [63 x i8] c"void unicode_fill(PyObject *, Py_ssize_t, Py_ssize_t, Py_UCS4)\00", align 1
@.str.361 = private unnamed_addr constant [32 x i8] c"end <= PyUnicode_GetLength(str)\00", align 1
@.str.362 = private unnamed_addr constant [9 x i8] c"res == 0\00", align 1

; Function Attrs: inlinehint nounwind uwtable
define internal void @Py_DECREF(ptr noundef %0) #3 {
  %2 = alloca ptr, align 8
  store ptr %0, ptr %2, align 8, !tbaa !3
  %3 = load ptr, ptr %2, align 8, !tbaa !3
  call void @_Py_DecRef(ptr noundef %3)
  ret void
}

; Function Attrs: nounwind uwtable
define internal void @unicode_fill(ptr noundef %0, i64 noundef %1, i64 noundef %2, i32 noundef %3) #0 {
  %5 = alloca ptr, align 8
  %6 = alloca i64, align 8
  %7 = alloca i64, align 8
  %8 = alloca i32, align 4
  %9 = alloca i64, align 8
  %10 = alloca i32, align 4
  store ptr %0, ptr %5, align 8, !tbaa !3
  store i64 %1, ptr %6, align 8, !tbaa !12
  store i64 %2, ptr %7, align 8, !tbaa !12
  store i32 %3, ptr %8, align 4, !tbaa !10
  %11 = load i64, ptr %6, align 8, !tbaa !12
  %12 = icmp sle i64 0, %11
  br i1 %12, label %13, label %14

13:                                               ; preds = %4
  br label %16

14:                                               ; preds = %4
  call void @__assert_fail(ptr noundef @.str.359, ptr noundef @.str.360, i32 noundef 168, ptr noundef @__PRETTY_FUNCTION__.unicode_fill) #8
  unreachable

15:                                               ; No predecessors!
  br label %16

16:                                               ; preds = %15, %13
  %17 = load i64, ptr %7, align 8, !tbaa !12
  %18 = load ptr, ptr %5, align 8, !tbaa !3
  %19 = call i64 @PyUnicode_GetLength(ptr noundef %18)
  %20 = icmp sle i64 %17, %19
  br i1 %20, label %21, label %22

21:                                               ; preds = %16
  br label %24

22:                                               ; preds = %16
  call void @__assert_fail(ptr noundef @.str.361, ptr noundef @.str.360, i32 noundef 169, ptr noundef @__PRETTY_FUNCTION__.unicode_fill) #8
  unreachable

23:                                               ; No predecessors!
  br label %24

24:                                               ; preds = %23, %21
  call void @llvm.lifetime.start.p0(i64 8, ptr %9) #7
  %25 = load i64, ptr %6, align 8, !tbaa !12
  store i64 %25, ptr %9, align 8, !tbaa !12
  br label %26

26:                                               ; preds = %42, %24
  %27 = load i64, ptr %9, align 8, !tbaa !12
  %28 = load i64, ptr %7, align 8, !tbaa !12
  %29 = icmp slt i64 %27, %28
  br i1 %29, label %31, label %30

30:                                               ; preds = %26
  call void @llvm.lifetime.end.p0(i64 8, ptr %9) #7
  br label %45

31:                                               ; preds = %26
  call void @llvm.lifetime.start.p0(i64 4, ptr %10) #7
  %32 = load ptr, ptr %5, align 8, !tbaa !3
  %33 = load i64, ptr %9, align 8, !tbaa !12
  %34 = load i32, ptr %8, align 4, !tbaa !10
  %35 = call i32 @PyUnicode_WriteChar(ptr noundef %32, i64 noundef %33, i32 noundef %34)
  store i32 %35, ptr %10, align 4, !tbaa !10
  %36 = load i32, ptr %10, align 4, !tbaa !10
  %37 = icmp eq i32 %36, 0
  br i1 %37, label %38, label %39

38:                                               ; preds = %31
  br label %41

39:                                               ; preds = %31
  call void @__assert_fail(ptr noundef @.str.362, ptr noundef @.str.360, i32 noundef 172, ptr noundef @__PRETTY_FUNCTION__.unicode_fill) #8
  unreachable

40:                                               ; No predecessors!
  br label %41

41:                                               ; preds = %40, %38
  call void @llvm.lifetime.end.p0(i64 4, ptr %10) #7
  br label %42

42:                                               ; preds = %41
  %43 = load i64, ptr %9, align 8, !tbaa !12
  %44 = add i64 %43, 1
  store i64 %44, ptr %9, align 8, !tbaa !12
  br label %26, !llvm.loop !18

45:                                               ; preds = %30
  ret void
}

; Function Attrs: inlinehint nounwind uwtable
define internal i32 @PyType_HasFeature(ptr noundef %0, i64 noundef %1) #3 {
  %3 = alloca ptr, align 8
  %4 = alloca i64, align 8
  %5 = alloca i64, align 8
  store ptr %0, ptr %3, align 8, !tbaa !16
  store i64 %1, ptr %4, align 8, !tbaa !12
  call void @llvm.lifetime.start.p0(i64 8, ptr %5) #7
  %6 = load ptr, ptr %3, align 8, !tbaa !16
  %7 = call i64 @PyType_GetFlags(ptr noundef %6)
  store i64 %7, ptr %5, align 8, !tbaa !12
  %8 = load i64, ptr %5, align 8, !tbaa !12
  %9 = load i64, ptr %4, align 8, !tbaa !12
  %10 = and i64 %8, %9
  %11 = icmp ne i64 %10, 0
  %12 = zext i1 %11 to i32
  call void @llvm.lifetime.end.p0(i64 8, ptr %5) #7
  ret i32 %12
}

; Function Attrs: inlinehint nounwind uwtable
define internal void @Py_XDECREF(ptr noundef %0) #3 {
  %2 = alloca ptr, align 8
  store ptr %0, ptr %2, align 8, !tbaa !3
  %3 = load ptr, ptr %2, align 8, !tbaa !3
  %4 = icmp ne ptr %3, null
  br i1 %4, label %5, label %7

5:                                                ; preds = %1
  %6 = load ptr, ptr %2, align 8, !tbaa !3
  call void @Py_DECREF(ptr noundef %6)
  br label %7

7:                                                ; preds = %5, %1
  ret void
}

; Function Attrs: nounwind uwtable
define internal ptr @unicode_resize(ptr noundef %0, ptr noundef %1) #0 {
  %3 = alloca ptr, align 8
  %4 = alloca ptr, align 8
  %5 = alloca ptr, align 8
  %6 = alloca ptr, align 8
  %7 = alloca ptr, align 8
  %8 = alloca i64, align 8
  %9 = alloca i32, align 4
  %10 = alloca i32, align 4
  store ptr %0, ptr %4, align 8, !tbaa !3
  store ptr %1, ptr %5, align 8, !tbaa !3
  call void @llvm.lifetime.start.p0(i64 8, ptr %6) #7
  call void @llvm.lifetime.start.p0(i64 8, ptr %7) #7
  call void @llvm.lifetime.start.p0(i64 8, ptr %8) #7
  call void @llvm.lifetime.start.p0(i64 4, ptr %9) #7
  %11 = load ptr, ptr %5, align 8, !tbaa !3
  %12 = call i32 (ptr, ptr, ...) @PyArg_ParseTuple(ptr noundef %11, ptr noundef @.str.358, ptr noundef %6, ptr noundef %8)
  %13 = icmp ne i32 %12, 0
  br i1 %13, label %15, label %14

14:                                               ; preds = %2
  store ptr null, ptr %3, align 8
  store i32 1, ptr %10, align 4
  br label %63

15:                                               ; preds = %2
  br label %16

16:                                               ; preds = %15
  %17 = load ptr, ptr %6, align 8, !tbaa !3
  %18 = call ptr @Py_GetConstantBorrowed(i32 noundef 0)
  %19 = icmp eq ptr %17, %18
  br i1 %19, label %20, label %21

20:                                               ; preds = %16
  store ptr null, ptr %6, align 8, !tbaa !3
  br label %21

21:                                               ; preds = %20, %16
  br label %22

22:                                               ; preds = %21
  br label %23

23:                                               ; preds = %22
  %24 = load ptr, ptr %6, align 8, !tbaa !3
  %25 = call ptr @unicode_copy(ptr noundef %24)
  store ptr %25, ptr %7, align 8, !tbaa !3
  %26 = icmp ne ptr %25, null
  br i1 %26, label %31, label %27

27:                                               ; preds = %23
  %28 = load ptr, ptr %6, align 8, !tbaa !3
  %29 = icmp ne ptr %28, null
  br i1 %29, label %30, label %31

30:                                               ; preds = %27
  store ptr null, ptr %3, align 8
  store i32 1, ptr %10, align 4
  br label %63

31:                                               ; preds = %27, %23
  %32 = load i64, ptr %8, align 8, !tbaa !12
  %33 = call i32 @PyUnicode_Resize(ptr noundef %7, i64 noundef %32)
  store i32 %33, ptr %9, align 4, !tbaa !10
  %34 = load i32, ptr %9, align 4, !tbaa !10
  %35 = icmp eq i32 %34, -1
  br i1 %35, label %36, label %41

36:                                               ; preds = %31
  %37 = call ptr @PyErr_Occurred()
  %38 = icmp ne ptr %37, null
  br i1 %38, label %39, label %41

39:                                               ; preds = %36
  %40 = load ptr, ptr %7, align 8, !tbaa !3
  call void @Py_XDECREF(ptr noundef %40)
  store ptr null, ptr %3, align 8
  store i32 1, ptr %10, align 4
  br label %63

41:                                               ; preds = %36, %31
  %42 = load ptr, ptr %6, align 8, !tbaa !3
  %43 = icmp ne ptr %42, null
  br i1 %43, label %44, label %59

44:                                               ; preds = %41
  %45 = load ptr, ptr %6, align 8, !tbaa !3
  %46 = call ptr @Py_TYPE(ptr noundef %45)
  %47 = call i32 @PyType_HasFeature(ptr noundef %46, i64 noundef 268435456)
  %48 = icmp ne i32 %47, 0
  br i1 %48, label %49, label %59

49:                                               ; preds = %44
  %50 = load i64, ptr %8, align 8, !tbaa !12
  %51 = load ptr, ptr %6, align 8, !tbaa !3
  %52 = call i64 @PyUnicode_GetLength(ptr noundef %51)
  %53 = icmp sgt i64 %50, %52
  br i1 %53, label %54, label %59

54:                                               ; preds = %49
  %55 = load ptr, ptr %7, align 8, !tbaa !3
  %56 = load ptr, ptr %6, align 8, !tbaa !3
  %57 = call i64 @PyUnicode_GetLength(ptr noundef %56)
  %58 = load i64, ptr %8, align 8, !tbaa !12
  call void @unicode_fill(ptr noundef %55, i64 noundef %57, i64 noundef %58, i32 noundef 0)
  br label %59

59:                                               ; preds = %54, %49, %44, %41
  %60 = load ptr, ptr %7, align 8, !tbaa !3
  %61 = load i32, ptr %9, align 4, !tbaa !10
  %62 = call ptr (ptr, ...) @Py_BuildValue(ptr noundef @.str.357, ptr noundef %60, i32 noundef %61)
  store ptr %62, ptr %3, align 8
  store i32 1, ptr %10, align 4
  br label %63

63:                                               ; preds = %59, %39, %30, %14
  call void @llvm.lifetime.end.p0(i64 4, ptr %9) #7
  call void @llvm.lifetime.end.p0(i64 8, ptr %8) #7
  call void @llvm.lifetime.end.p0(i64 8, ptr %7) #7
  call void @llvm.lifetime.end.p0(i64 8, ptr %6) #7
  %64 = load ptr, ptr %3, align 8
  ret ptr %64
}