; Function Attrs: nounwind uwtable
define internal ptr @unicode_resize(ptr readnone captures(none) %0, ptr noundef %1) #0 {
  %3 = alloca ptr, align 8
  %4 = alloca ptr, align 8
  %5 = alloca i64, align 8
  call void @llvm.lifetime.start.p0(i64 8, ptr nonnull %3) #4
  call void @llvm.lifetime.start.p0(i64 8, ptr nonnull %4) #4
  call void @llvm.lifetime.start.p0(i64 8, ptr nonnull %5) #4
  %6 = call i32 (ptr, ptr, ...) @PyArg_ParseTuple(ptr noundef %1, ptr noundef nonnull @.str.358, ptr noundef nonnull %3, ptr noundef nonnull %5) #4
  %.not = icmp eq i32 %6, 0
  br i1 %.not, label %Py_XDECREF.exit, label %7

7:                                                ; preds = %2
  %8 = load ptr, ptr %3, align 8, !tbaa !8
  %9 = call ptr @Py_GetConstantBorrowed(i32 noundef 0) #4
  %10 = icmp eq ptr %8, %9
  br i1 %10, label %11, label %._crit_edge

._crit_edge:                                      ; preds = %7
  %.pre = load ptr, ptr %3, align 8, !tbaa !8
  br label %12

11:                                               ; preds = %7
  store ptr null, ptr %3, align 8, !tbaa !8
  br label %12

12:                                               ; preds = %._crit_edge, %11
  %13 = phi ptr [ %.pre, %._crit_edge ], [ null, %11 ]
  %14 = call fastcc ptr @unicode_copy(ptr noundef %13)
  store ptr %14, ptr %4, align 8, !tbaa !8
  %15 = icmp eq ptr %14, null
  %16 = load ptr, ptr %3, align 8
  %17 = icmp ne ptr %16, null
  %or.cond = select i1 %15, i1 %17, i1 false
  br i1 %or.cond, label %Py_XDECREF.exit, label %18

18:                                               ; preds = %12
  %19 = load i64, ptr %5, align 8, !tbaa !10
  %20 = call i32 @PyUnicode_Resize(ptr noundef nonnull %4, i64 noundef %19) #4
  %21 = icmp eq i32 %20, -1
  br i1 %21, label %22, label %27

22:                                               ; preds = %18
  %23 = call ptr @PyErr_Occurred() #4
  %.not5 = icmp eq ptr %23, null
  br i1 %.not5, label %27, label %24

24:                                               ; preds = %22
  %25 = load ptr, ptr %4, align 8, !tbaa !8
  %.not.i = icmp eq ptr %25, null
  br i1 %.not.i, label %Py_XDECREF.exit, label %26

26:                                               ; preds = %24
  call void @_Py_DecRef(ptr noundef nonnull %25) #4
  br label %Py_XDECREF.exit

27:                                               ; preds = %22, %18
  %28 = load ptr, ptr %3, align 8, !tbaa !8
  %.not6 = icmp eq ptr %28, null
  br i1 %.not6, label %unicode_fill.exit, label %29

29:                                               ; preds = %27
  %30 = call ptr @Py_TYPE(ptr noundef nonnull %28) #4
  %31 = call i64 @PyType_GetFlags(ptr noundef %30) #4
  %32 = and i64 %31, 268435456
  %.not7 = icmp eq i64 %32, 0
  br i1 %.not7, label %unicode_fill.exit, label %33

33:                                               ; preds = %29
  %34 = load i64, ptr %5, align 8, !tbaa !10
  %35 = load ptr, ptr %3, align 8, !tbaa !8
  %36 = call i64 @PyUnicode_GetLength(ptr noundef %35) #4
  %37 = icmp sgt i64 %34, %36
  br i1 %37, label %38, label %unicode_fill.exit

38:                                               ; preds = %33
  %39 = load ptr, ptr %4, align 8, !tbaa !8
  %40 = load ptr, ptr %3, align 8, !tbaa !8
  %41 = call i64 @PyUnicode_GetLength(ptr noundef %40) #4
  %42 = load i64, ptr %5, align 8, !tbaa !10
  %43 = icmp sgt i64 %41, -1
  br i1 %43, label %45, label %44

44:                                               ; preds = %38
  call void @__assert_fail(ptr noundef nonnull @.str.359, ptr noundef nonnull @.str.360, i32 noundef 168, ptr noundef nonnull @__PRETTY_FUNCTION__.unicode_fill) #5
  unreachable

45:                                               ; preds = %38
  %46 = call i64 @PyUnicode_GetLength(ptr noundef %39) #4
  %.not.i8 = icmp sgt i64 %42, %46
  br i1 %.not.i8, label %48, label %.preheader.i

.preheader.i:                                     ; preds = %45
  %47 = icmp slt i64 %41, %42
  br i1 %47, label %.lr.ph.i, label %unicode_fill.exit

48:                                               ; preds = %45
  call void @__assert_fail(ptr noundef nonnull @.str.361, ptr noundef nonnull @.str.360, i32 noundef 169, ptr noundef nonnull @__PRETTY_FUNCTION__.unicode_fill) #5
  unreachable

49:                                               ; preds = %.lr.ph.i
  %50 = add i64 %.012.i, 1
  %exitcond.not.i = icmp eq i64 %50, %42
  br i1 %exitcond.not.i, label %unicode_fill.exit, label %.lr.ph.i, !llvm.loop !14

.lr.ph.i:                                         ; preds = %.preheader.i, %49
  %.012.i = phi i64 [ %50, %49 ], [ %41, %.preheader.i ]
  %51 = call i32 @PyUnicode_WriteChar(ptr noundef %39, i64 noundef %.012.i, i32 noundef 0) #4
  %52 = icmp eq i32 %51, 0
  br i1 %52, label %49, label %53

53:                                               ; preds = %.lr.ph.i
  call void @__assert_fail(ptr noundef nonnull @.str.362, ptr noundef nonnull @.str.360, i32 noundef 172, ptr noundef nonnull @__PRETTY_FUNCTION__.unicode_fill) #5
  unreachable

unicode_fill.exit:                                ; preds = %49, %.preheader.i, %33, %29, %27
  %54 = load ptr, ptr %4, align 8, !tbaa !8
  %55 = call ptr (ptr, ...) @Py_BuildValue(ptr noundef nonnull @.str.357, ptr noundef %54, i32 noundef %20) #4
  br label %Py_XDECREF.exit

Py_XDECREF.exit:                                  ; preds = %26, %24, %12, %2, %unicode_fill.exit
  %.0 = phi ptr [ %55, %unicode_fill.exit ], [ null, %2 ], [ null, %12 ], [ null, %24 ], [ null, %26 ]
  call void @llvm.lifetime.end.p0(i64 8, ptr nonnull %5) #4
  call void @llvm.lifetime.end.p0(i64 8, ptr nonnull %4) #4
  call void @llvm.lifetime.end.p0(i64 8, ptr nonnull %3) #4
  ret ptr %.0
}